target datalayout = "e-m:e-p270:32:32-p271:32:32-p272:64:64-i64:64-i128:128-f80:128-n8:16:32:64-S128"
target triple = "x86_64-pc-linux-gnu"

%struct.dtlink_s_ = type { ptr, %union.anon }
%union.anon = type { ptr }
%struct.dt_s_ = type { ptr, ptr, %struct.Dtdata_t, ptr, i32, ptr, ptr, ptr }
%struct.Dtdata_t = type { i32, ptr, %union.anon.1, i32, i32, i32 }
%union.anon.1 = type { ptr }
%struct.chanItem = type { %struct.dtlink_s_, double, ptr }

@stderr = external global ptr, align 8
@.str.2 = private unnamed_addr constant [58 x i8] c"integer overflow when trying to allocate %zu * %zu bytes\0A\00", align 1
@.str.3 = private unnamed_addr constant [49 x i8] c"out of memory when trying to allocate %zu bytes\0A\00", align 1
@Dtoset = external global ptr, align 8
@chanDisc = internal global { i32, i32, i32, [4 x i8], ptr, ptr, ptr } { i32 16, i32 16, i32 0, [4 x i8] zeroinitializer, ptr null, ptr @freeChannel, ptr @chancmpid }, align 8

; Function Attrs: inlinehint nounwind uwtable
define internal ptr @gv_calloc(i64 noundef %0, i64 noundef %1) #2 {
  %3 = alloca i64, align 8
  %4 = alloca i64, align 8
  %5 = alloca ptr, align 8
  store i64 %0, ptr %3, align 8, !tbaa !27
  store i64 %1, ptr %4, align 8, !tbaa !27
  %6 = load i64, ptr %3, align 8, !tbaa !27
  %7 = icmp ugt i64 %6, 0
  br i1 %7, label %8, label %18

8:                                                ; preds = %2
  %9 = load i64, ptr %3, align 8, !tbaa !27
  %10 = udiv i64 -1, %9
  %11 = load i64, ptr %4, align 8, !tbaa !27
  %12 = icmp ult i64 %10, %11
  br i1 %12, label %13, label %18

13:                                               ; preds = %8
  %14 = load ptr, ptr @stderr, align 8, !tbaa !25
  %15 = load i64, ptr %3, align 8, !tbaa !27
  %16 = load i64, ptr %4, align 8, !tbaa !27
  %17 = call i32 (ptr, ptr, ...) @fprintf(ptr noundef %14, ptr noundef @.str.2, i64 noundef %15, i64 noundef %16) #12
  call void @graphviz_exit(i32 noundef 1) #13
  unreachable

18:                                               ; preds = %8, %2
  call void @llvm.lifetime.start.p0(i64 8, ptr %5) #12
  %19 = load i64, ptr %3, align 8, !tbaa !27
  %20 = load i64, ptr %4, align 8, !tbaa !27
  %21 = call noalias ptr @calloc(i64 noundef %19, i64 noundef %20) #14
  store ptr %21, ptr %5, align 8, !tbaa !10
  %22 = load i64, ptr %3, align 8, !tbaa !27
  %23 = icmp ugt i64 %22, 0
  br i1 %23, label %24, label %36

24:                                               ; preds = %18
  %25 = load i64, ptr %4, align 8, !tbaa !27
  %26 = icmp ugt i64 %25, 0
  br i1 %26, label %27, label %36

27:                                               ; preds = %24
  %28 = load ptr, ptr %5, align 8, !tbaa !10
  %29 = icmp eq ptr %28, null
  br i1 %29, label %30, label %36

30:                                               ; preds = %27
  %31 = load ptr, ptr @stderr, align 8, !tbaa !25
  %32 = load i64, ptr %3, align 8, !tbaa !27
  %33 = load i64, ptr %4, align 8, !tbaa !27
  %34 = mul i64 %32, %33
  %35 = call i32 (ptr, ptr, ...) @fprintf(ptr noundef %31, ptr noundef @.str.3, i64 noundef %34) #12
  call void @graphviz_exit(i32 noundef 1) #13
  unreachable

36:                                               ; preds = %27, %24, %18
  %37 = load ptr, ptr %5, align 8, !tbaa !10
  call void @llvm.lifetime.end.p0(i64 8, ptr %5) #12
  ret ptr %37
}

; Function Attrs: inlinehint nounwind uwtable
define internal ptr @gv_alloc(i64 noundef %0) #2 {
  %2 = alloca i64, align 8
  store i64 %0, ptr %2, align 8, !tbaa !27
  %3 = load i64, ptr %2, align 8, !tbaa !27
  %4 = call ptr @gv_calloc(i64 noundef 1, i64 noundef %3)
  ret ptr %4
}

; Function Attrs: nounwind uwtable
define internal void @addChan(ptr noundef %0, ptr noundef %1, double noundef %2) #0 {
  %4 = alloca ptr, align 8
  %5 = alloca ptr, align 8
  %6 = alloca double, align 8
  %7 = alloca ptr, align 8
  store ptr %0, ptr %4, align 8, !tbaa !11
  store ptr %1, ptr %5, align 8, !tbaa !10
  store double %2, ptr %6, align 8, !tbaa !85
  call void @llvm.lifetime.start.p0(i64 8, ptr %7) #12
  %8 = load ptr, ptr %4, align 8, !tbaa !11
  %9 = getelementptr inbounds nuw %struct.dt_s_, ptr %8, i32 0, i32 0
  %10 = load ptr, ptr %9, align 8, !tbaa !157
  %11 = load ptr, ptr %4, align 8, !tbaa !11
  %12 = call ptr %10(ptr noundef %11, ptr noundef %6, i32 noundef 512)
  store ptr %12, ptr %7, align 8, !tbaa !10
  %13 = load ptr, ptr %7, align 8, !tbaa !10
  %14 = icmp ne ptr %13, null
  br i1 %14, label %30, label %15

15:                                               ; preds = %3
  %16 = call ptr @gv_alloc(i64 noundef 32)
  store ptr %16, ptr %7, align 8, !tbaa !10
  %17 = load double, ptr %6, align 8, !tbaa !85
  %18 = load ptr, ptr %7, align 8, !tbaa !10
  %19 = getelementptr inbounds nuw %struct.chanItem, ptr %18, i32 0, i32 1
  store double %17, ptr %19, align 8, !tbaa !161
  %20 = load ptr, ptr @Dtoset, align 8, !tbaa !10
  %21 = call ptr @dtopen(ptr noundef @chanDisc, ptr noundef %20)
  %22 = load ptr, ptr %7, align 8, !tbaa !10
  %23 = getelementptr inbounds nuw %struct.chanItem, ptr %22, i32 0, i32 2
  store ptr %21, ptr %23, align 8, !tbaa !163
  %24 = load ptr, ptr %4, align 8, !tbaa !11
  %25 = getelementptr inbounds nuw %struct.dt_s_, ptr %24, i32 0, i32 0
  %26 = load ptr, ptr %25, align 8, !tbaa !157
  %27 = load ptr, ptr %4, align 8, !tbaa !11
  %28 = load ptr, ptr %7, align 8, !tbaa !10
  %29 = call ptr %26(ptr noundef %27, ptr noundef %28, i32 noundef 1)
  br label %30

30:                                               ; preds = %15, %3
  %31 = load ptr, ptr %7, align 8, !tbaa !10
  %32 = getelementptr inbounds nuw %struct.chanItem, ptr %31, i32 0, i32 2
  %33 = load ptr, ptr %32, align 8, !tbaa !163
  %34 = getelementptr inbounds nuw %struct.dt_s_, ptr %33, i32 0, i32 0
  %35 = load ptr, ptr %34, align 8, !tbaa !157
  %36 = load ptr, ptr %7, align 8, !tbaa !10
  %37 = getelementptr inbounds nuw %struct.chanItem, ptr %36, i32 0, i32 2
  %38 = load ptr, ptr %37, align 8, !tbaa !163
  %39 = load ptr, ptr %5, align 8, !tbaa !10
  %40 = call ptr %35(ptr noundef %38, ptr noundef %39, i32 noundef 1)
  call void @llvm.lifetime.end.p0(i64 8, ptr %7) #12
  ret void
}