; Function Attrs: nounwind uwtable
define internal fastcc void @addChan(ptr noundef %0, ptr noundef %1, double noundef %2) unnamed_addr #0 {
  %4 = alloca double, align 8
  store double %2, ptr %4, align 8, !tbaa !46
  %5 = load ptr, ptr %0, align 8, !tbaa !112
  %6 = call ptr %5(ptr noundef nonnull %0, ptr noundef nonnull %4, i32 noundef 512) #18
  %.not = icmp eq ptr %6, null
  br i1 %.not, label %7, label %20

7:                                                ; preds = %3
  %8 = call noalias dereferenceable_or_null(32) ptr @calloc(i64 noundef 1, i64 noundef range(i64 16, 81) 32) #19
  %9 = icmp eq ptr %8, null
  br i1 %9, label %10, label %gv_alloc.exit

10:                                               ; preds = %7
  %11 = load ptr, ptr @stderr, align 8, !tbaa !3
  %12 = call i32 (ptr, ptr, ...) @fprintf(ptr noundef %11, ptr noundef nonnull @.str.3, i64 noundef 32) #20
  call fastcc void @graphviz_exit() #21
  unreachable

gv_alloc.exit:                                    ; preds = %7
  %13 = load double, ptr %4, align 8, !tbaa !46
  %14 = getelementptr inbounds nuw i8, ptr %8, i64 16
  store double %13, ptr %14, align 8, !tbaa !152
  %15 = load ptr, ptr @Dtoset, align 8, !tbaa !92
  %16 = call ptr @dtopen(ptr noundef nonnull @chanDisc, ptr noundef %15) #18
  %17 = getelementptr inbounds nuw i8, ptr %8, i64 24
  store ptr %16, ptr %17, align 8, !tbaa !116
  %18 = load ptr, ptr %0, align 8, !tbaa !112
  %19 = call ptr %18(ptr noundef nonnull %0, ptr noundef nonnull %8, i32 noundef 1) #18
  br label %20

20:                                               ; preds = %gv_alloc.exit, %3
  %.0 = phi ptr [ %6, %3 ], [ %8, %gv_alloc.exit ]
  %21 = getelementptr inbounds nuw i8, ptr %.0, i64 24
  %22 = load ptr, ptr %21, align 8, !tbaa !116
  %23 = load ptr, ptr %22, align 8, !tbaa !112
  %24 = call ptr %23(ptr noundef nonnull %22, ptr noundef %1, i32 noundef 1) #18
  ret void
}